; Function Attrs: inlinehint mustprogress nounwind optsize uwtable
define internal noundef ptr @"_ZZN8nanobind6detail11func_createILb0ELb1EZL27nanobind_init_test_enum_extRNS_7module_EE3$_311ClassicEnumJS5_EJLm0EEJNS_5scopeENS_4nameEEEEP7_objectOT1_PFT2_DpT3_ESt16integer_sequenceImJXspT4_EEEDpRKT5_ENUlPvPS9_PhNS_9rv_policyEPNS0_12cleanup_listEE_8__invokeESN_SO_SP_SQ_SS_"(ptr readnone captures(none) %0, ptr noundef readonly captures(none) %1, ptr noundef readonly captures(none) %2, i32 %3, ptr readnone captures(none) %4) #9 align 2 personality ptr @__gxx_personality_v0 {
  %6 = alloca i64, align 8
  %7 = load ptr, ptr %1, align 8, !tbaa !78
  %8 = load i8, ptr %2, align 1, !tbaa !54
  call void @llvm.lifetime.start.p0(i64 8, ptr nonnull %6) #13
  %9 = call noundef zeroext i1 @_ZN8nanobind6detail16enum_from_pythonEPKSt9type_infoP7_objectPlh(ptr noundef nonnull @_ZTI11ClassicEnum, ptr noundef %7, ptr noundef nonnull %6, i8 noundef zeroext %8) #14
  %10 = load i64, ptr %6, align 8, !tbaa !81
  call void @llvm.lifetime.end.p0(i64 8, ptr nonnull %6) #13
  br i1 %9, label %11, label %"_ZZN8nanobind6detail11func_createILb0ELb1EZL27nanobind_init_test_enum_extRNS_7module_EE3$_311ClassicEnumJS5_EJLm0EEJNS_5scopeENS_4nameEEEEP7_objectOT1_PFT2_DpT3_ESt16integer_sequenceImJXspT4_EEEDpRKT5_ENKUlPvPS9_PhNS_9rv_policyEPNS0_12cleanup_listEE_clESN_SO_SP_SQ_SS_.exit"

11:                                               ; preds = %5
  %12 = and i64 %10, 4294967295
  %13 = call noundef ptr @_ZN8nanobind6detail13enum_from_cppEPKSt9type_infol(ptr noundef nonnull @_ZTI11ClassicEnum, i64 noundef %12) #14
  br label %"_ZZN8nanobind6detail11func_createILb0ELb1EZL27nanobind_init_test_enum_extRNS_7module_EE3$_311ClassicEnumJS5_EJLm0EEJNS_5scopeENS_4nameEEEEP7_objectOT1_PFT2_DpT3_ESt16integer_sequenceImJXspT4_EEEDpRKT5_ENKUlPvPS9_PhNS_9rv_policyEPNS0_12cleanup_listEE_clESN_SO_SP_SQ_SS_.exit"

"_ZZN8nanobind6detail11func_createILb0ELb1EZL27nanobind_init_test_enum_extRNS_7module_EE3$_311ClassicEnumJS5_EJLm0EEJNS_5scopeENS_4nameEEEEP7_objectOT1_PFT2_DpT3_ESt16integer_sequenceImJXspT4_EEEDpRKT5_ENKUlPvPS9_PhNS_9rv_policyEPNS0_12cleanup_listEE_clESN_SO_SP_SQ_SS_.exit": ; preds = %5, %11
  %.0.i = phi ptr [ %13, %11 ], [ inttoptr (i64 1 to ptr), %5 ]
  ret ptr %.0.i
}